target datalayout = "e-m:e-p270:32:32-p271:32:32-p272:64:64-i64:64-i128:128-f80:128-n8:16:32:64-S128"
target triple = "x86_64-pc-linux-gnu"

%struct.AVFormatContext = type { ptr, ptr, ptr, ptr, ptr, i32, i32, ptr, i32, ptr, i32, ptr, ptr, i64, i64, i64, i32, i32, i32, i64, i64, ptr, i32, i32, ptr, i32, i32, i32, i32, ptr, i64, i32, i32, %struct.AVIOInterruptCB, i32, i32, i32, i32, i64, i32, i32, i32, i32, i32, i32, i32, i32, i32, i32, i32, i32, i64, i32, i32, i32, i32, i32, ptr, ptr, ptr, ptr, i32, ptr, ptr, ptr, ptr, i32, ptr, ptr, i64, ptr, ptr, ptr, i64 }
%struct.AVIOInterruptCB = type { ptr, ptr }
%struct.HLSContext = type { ptr, i64, i32, i64, i64, i32, i32, i32, i32, ptr, ptr, i32, i32, i32, i32, i32, i64, i64, ptr, ptr, ptr, ptr, i32, ptr, ptr, ptr, ptr, i32, ptr, [4097 x i8], [4097 x i8], [33 x i8], [33 x i8], ptr, ptr, ptr, ptr, i32, ptr, i32, i32, ptr, i32, ptr, ptr, ptr, i32, i32, ptr, ptr, ptr, i64, i32, ptr, i32, i32 }
%struct.VariantStream = type { i32, i32, i64, ptr, ptr, ptr, ptr, i32, i32, ptr, ptr, ptr, ptr, i32, i32, i32, i32, double, i64, i64, i64, i64, i64, double, i64, i64, i32, i32, i32, i32, i64, double, i64, i64, ptr, ptr, ptr, ptr, ptr, ptr, ptr, ptr, double, [4096 x i8], ptr, ptr, i32, [4097 x i8], [4097 x i8], [33 x i8], [33 x i8], ptr, [128 x i8], i32, i32, i32, i32, ptr, ptr, ptr, ptr, ptr, ptr }
%struct.HLSSegment = type { [4096 x i8], [4096 x i8], double, i32, i64, i64, i64, i64, i32, [4097 x i8], [33 x i8], ptr, double }

; Function Attrs: nounwind uwtable
define internal void @hls_free_segments(ptr noundef %0) #0 {
  %2 = alloca ptr, align 8
  %3 = alloca ptr, align 8
  store ptr %0, ptr %2, align 8, !tbaa !174
  call void @llvm.lifetime.start.p0(i64 8, ptr %3) #15
  br label %4

4:                                                ; preds = %7, %1
  %5 = load ptr, ptr %2, align 8, !tbaa !174
  %6 = icmp ne ptr %5, null
  br i1 %6, label %7, label %12

7:                                                ; preds = %4
  %8 = load ptr, ptr %2, align 8, !tbaa !174
  store ptr %8, ptr %3, align 8, !tbaa !174
  %9 = load ptr, ptr %2, align 8, !tbaa !174
  %10 = getelementptr inbounds nuw %struct.HLSSegment, ptr %9, i32 0, i32 11
  %11 = load ptr, ptr %10, align 8, !tbaa !188
  store ptr %11, ptr %2, align 8, !tbaa !174
  call void @av_freep(ptr noundef %3)
  br label %4, !llvm.loop !298

12:                                               ; preds = %4
  call void @llvm.lifetime.end.p0(i64 8, ptr %3) #15
  ret void
}

; Function Attrs: nounwind uwtable
define internal void @hls_deinit(ptr noundef %0) #0 {
  %2 = alloca ptr, align 8
  %3 = alloca ptr, align 8
  %4 = alloca i32, align 4
  %5 = alloca ptr, align 8
  store ptr %0, ptr %2, align 8, !tbaa !4
  call void @llvm.lifetime.start.p0(i64 8, ptr %3) #15
  %6 = load ptr, ptr %2, align 8, !tbaa !4
  %7 = getelementptr inbounds nuw %struct.AVFormatContext, ptr %6, i32 0, i32 3
  %8 = load ptr, ptr %7, align 8, !tbaa !9
  store ptr %8, ptr %3, align 8, !tbaa !26
  call void @llvm.lifetime.start.p0(i64 4, ptr %4) #15
  store i32 0, ptr %4, align 4, !tbaa !30
  call void @llvm.lifetime.start.p0(i64 8, ptr %5) #15
  store ptr null, ptr %5, align 8, !tbaa !28
  store i32 0, ptr %4, align 4, !tbaa !30
  br label %9

9:                                                ; preds = %56, %1
  %10 = load i32, ptr %4, align 4, !tbaa !30
  %11 = load ptr, ptr %3, align 8, !tbaa !26
  %12 = getelementptr inbounds nuw %struct.HLSContext, ptr %11, i32 0, i32 37
  %13 = load i32, ptr %12, align 8, !tbaa !31
  %14 = icmp ult i32 %10, %13
  br i1 %14, label %15, label %59

15:                                               ; preds = %9
  %16 = load ptr, ptr %3, align 8, !tbaa !26
  %17 = getelementptr inbounds nuw %struct.HLSContext, ptr %16, i32 0, i32 36
  %18 = load ptr, ptr %17, align 8, !tbaa !34
  %19 = load i32, ptr %4, align 4, !tbaa !30
  %20 = sext i32 %19 to i64
  %21 = getelementptr inbounds %struct.VariantStream, ptr %18, i64 %20
  store ptr %21, ptr %5, align 8, !tbaa !28
  %22 = load ptr, ptr %5, align 8, !tbaa !28
  %23 = getelementptr inbounds nuw %struct.VariantStream, ptr %22, i32 0, i32 38
  call void @av_freep(ptr noundef %23)
  %24 = load ptr, ptr %5, align 8, !tbaa !28
  %25 = getelementptr inbounds nuw %struct.VariantStream, ptr %24, i32 0, i32 45
  call void @av_freep(ptr noundef %25)
  %26 = load ptr, ptr %5, align 8, !tbaa !28
  %27 = getelementptr inbounds nuw %struct.VariantStream, ptr %26, i32 0, i32 44
  call void @av_freep(ptr noundef %27)
  %28 = load ptr, ptr %5, align 8, !tbaa !28
  %29 = getelementptr inbounds nuw %struct.VariantStream, ptr %28, i32 0, i32 39
  call void @av_freep(ptr noundef %29)
  %30 = load ptr, ptr %5, align 8, !tbaa !28
  %31 = getelementptr inbounds nuw %struct.VariantStream, ptr %30, i32 0, i32 40
  call void @av_freep(ptr noundef %31)
  %32 = load ptr, ptr %5, align 8, !tbaa !28
  %33 = getelementptr inbounds nuw %struct.VariantStream, ptr %32, i32 0, i32 12
  %34 = load ptr, ptr %33, align 8, !tbaa !56
  call void @avformat_free_context(ptr noundef %34)
  %35 = load ptr, ptr %5, align 8, !tbaa !28
  %36 = getelementptr inbounds nuw %struct.VariantStream, ptr %35, i32 0, i32 11
  %37 = load ptr, ptr %36, align 8, !tbaa !35
  call void @avformat_free_context(ptr noundef %37)
  %38 = load ptr, ptr %3, align 8, !tbaa !26
  %39 = getelementptr inbounds nuw %struct.HLSContext, ptr %38, i32 0, i32 12
  %40 = load i32, ptr %39, align 4, !tbaa !104
  %41 = icmp ne i32 %40, 0
  br i1 %41, label %42, label %45

42:                                               ; preds = %15
  %43 = load ptr, ptr %5, align 8, !tbaa !28
  %44 = getelementptr inbounds nuw %struct.VariantStream, ptr %43, i32 0, i32 10
  call void @av_freep(ptr noundef %44)
  br label %45

45:                                               ; preds = %42, %15
  %46 = load ptr, ptr %5, align 8, !tbaa !28
  %47 = getelementptr inbounds nuw %struct.VariantStream, ptr %46, i32 0, i32 34
  %48 = load ptr, ptr %47, align 8, !tbaa !147
  call void @hls_free_segments(ptr noundef %48)
  %49 = load ptr, ptr %5, align 8, !tbaa !28
  %50 = getelementptr inbounds nuw %struct.VariantStream, ptr %49, i32 0, i32 36
  %51 = load ptr, ptr %50, align 8, !tbaa !148
  call void @hls_free_segments(ptr noundef %51)
  %52 = load ptr, ptr %5, align 8, !tbaa !28
  %53 = getelementptr inbounds nuw %struct.VariantStream, ptr %52, i32 0, i32 41
  call void @av_freep(ptr noundef %53)
  %54 = load ptr, ptr %5, align 8, !tbaa !28
  %55 = getelementptr inbounds nuw %struct.VariantStream, ptr %54, i32 0, i32 51
  call void @av_freep(ptr noundef %55)
  br label %56

56:                                               ; preds = %45
  %57 = load i32, ptr %4, align 4, !tbaa !30
  %58 = add nsw i32 %57, 1
  store i32 %58, ptr %4, align 4, !tbaa !30
  br label %9, !llvm.loop !149

59:                                               ; preds = %9
  %60 = load ptr, ptr %2, align 8, !tbaa !4
  %61 = load ptr, ptr %3, align 8, !tbaa !26
  %62 = getelementptr inbounds nuw %struct.HLSContext, ptr %61, i32 0, i32 48
  %63 = call i32 @ff_format_io_close(ptr noundef %60, ptr noundef %62)
  %64 = load ptr, ptr %2, align 8, !tbaa !4
  %65 = load ptr, ptr %3, align 8, !tbaa !26
  %66 = getelementptr inbounds nuw %struct.HLSContext, ptr %65, i32 0, i32 49
  %67 = call i32 @ff_format_io_close(ptr noundef %64, ptr noundef %66)
  %68 = load ptr, ptr %2, align 8, !tbaa !4
  %69 = load ptr, ptr %3, align 8, !tbaa !26
  %70 = getelementptr inbounds nuw %struct.HLSContext, ptr %69, i32 0, i32 50
  %71 = call i32 @ff_format_io_close(ptr noundef %68, ptr noundef %70)
  %72 = load ptr, ptr %3, align 8, !tbaa !26
  %73 = getelementptr inbounds nuw %struct.HLSContext, ptr %72, i32 0, i32 26
  call void @av_freep(ptr noundef %73)
  %74 = load ptr, ptr %3, align 8, !tbaa !26
  %75 = getelementptr inbounds nuw %struct.HLSContext, ptr %74, i32 0, i32 36
  call void @av_freep(ptr noundef %75)
  %76 = load ptr, ptr %3, align 8, !tbaa !26
  %77 = getelementptr inbounds nuw %struct.HLSContext, ptr %76, i32 0, i32 38
  call void @av_freep(ptr noundef %77)
  %78 = load ptr, ptr %3, align 8, !tbaa !26
  %79 = getelementptr inbounds nuw %struct.HLSContext, ptr %78, i32 0, i32 41
  call void @av_freep(ptr noundef %79)
  call void @llvm.lifetime.end.p0(i64 8, ptr %5) #15
  call void @llvm.lifetime.end.p0(i64 4, ptr %4) #15
  call void @llvm.lifetime.end.p0(i64 8, ptr %3) #15
  ret void
}