; Function Attrs: nounwind uwtable
define internal void @hls_deinit(ptr noundef %0) #0 {
  %2 = alloca ptr, align 8
  %3 = alloca ptr, align 8
  %4 = getelementptr inbounds nuw i8, ptr %0, i64 24
  %5 = load ptr, ptr %4, align 8, !tbaa !4
  %6 = getelementptr inbounds nuw i8, ptr %5, i64 8496
  %7 = load i32, ptr %6, align 8, !tbaa !24
  %.not34 = icmp eq i32 %7, 0
  br i1 %.not34, label %._crit_edge, label %.lr.ph

.lr.ph:                                           ; preds = %1
  %8 = getelementptr inbounds nuw i8, ptr %5, i64 8488
  %9 = getelementptr inbounds nuw i8, ptr %5, i64 76
  br label %10

10:                                               ; preds = %.lr.ph, %hls_free_segments.exit32
  %indvars.iv = phi i64 [ 0, %.lr.ph ], [ %indvars.iv.next, %hls_free_segments.exit32 ]
  %11 = load ptr, ptr %8, align 8, !tbaa !28
  %12 = getelementptr inbounds nuw %struct.VariantStream, ptr %11, i64 %indvars.iv
  %13 = getelementptr inbounds nuw i8, ptr %12, i64 256
  call void @av_freep(ptr noundef nonnull %13) #17
  %14 = getelementptr inbounds nuw i8, ptr %12, i64 4400
  call void @av_freep(ptr noundef nonnull %14) #17
  %15 = getelementptr inbounds nuw i8, ptr %12, i64 4392
  call void @av_freep(ptr noundef nonnull %15) #17
  %16 = getelementptr inbounds nuw i8, ptr %12, i64 264
  call void @av_freep(ptr noundef nonnull %16) #17
  %17 = getelementptr inbounds nuw i8, ptr %12, i64 272
  call void @av_freep(ptr noundef nonnull %17) #17
  %18 = getelementptr inbounds nuw i8, ptr %12, i64 80
  %19 = load ptr, ptr %18, align 8, !tbaa !51
  call void @avformat_free_context(ptr noundef %19) #17
  %20 = getelementptr inbounds nuw i8, ptr %12, i64 72
  %21 = load ptr, ptr %20, align 8, !tbaa !29
  call void @avformat_free_context(ptr noundef %21) #17
  %22 = load i32, ptr %9, align 4, !tbaa !96
  %.not = icmp eq i32 %22, 0
  br i1 %.not, label %25, label %23

23:                                               ; preds = %10
  %24 = getelementptr inbounds nuw i8, ptr %12, i64 64
  call void @av_freep(ptr noundef nonnull %24) #17
  br label %25

25:                                               ; preds = %23, %10
  %26 = getelementptr inbounds nuw i8, ptr %12, i64 224
  %27 = load ptr, ptr %26, align 8, !tbaa !194
  call void @llvm.lifetime.start.p0(i64 8, ptr nonnull %3) #17
  %.not3.i = icmp eq ptr %27, null
  br i1 %.not3.i, label %hls_free_segments.exit, label %.lr.ph.i

.lr.ph.i:                                         ; preds = %25, %.lr.ph.i
  %.04.i = phi ptr [ %29, %.lr.ph.i ], [ %27, %25 ]
  store ptr %.04.i, ptr %3, align 8, !tbaa !195
  %28 = getelementptr inbounds nuw i8, ptr %.04.i, i64 12376
  %29 = load ptr, ptr %28, align 8, !tbaa !196
  call void @av_freep(ptr noundef nonnull %3) #17
  %.not.i = icmp eq ptr %29, null
  br i1 %.not.i, label %hls_free_segments.exit, label %.lr.ph.i, !llvm.loop !197

hls_free_segments.exit:                           ; preds = %.lr.ph.i, %25
  call void @llvm.lifetime.end.p0(i64 8, ptr nonnull %3) #17
  %30 = getelementptr inbounds nuw i8, ptr %12, i64 240
  %31 = load ptr, ptr %30, align 8, !tbaa !198
  call void @llvm.lifetime.start.p0(i64 8, ptr nonnull %2) #17
  %.not3.i28 = icmp eq ptr %31, null
  br i1 %.not3.i28, label %hls_free_segments.exit32, label %.lr.ph.i29

.lr.ph.i29:                                       ; preds = %hls_free_segments.exit, %.lr.ph.i29
  %.04.i30 = phi ptr [ %33, %.lr.ph.i29 ], [ %31, %hls_free_segments.exit ]
  store ptr %.04.i30, ptr %2, align 8, !tbaa !195
  %32 = getelementptr inbounds nuw i8, ptr %.04.i30, i64 12376
  %33 = load ptr, ptr %32, align 8, !tbaa !196
  call void @av_freep(ptr noundef nonnull %2) #17
  %.not.i31 = icmp eq ptr %33, null
  br i1 %.not.i31, label %hls_free_segments.exit32, label %.lr.ph.i29, !llvm.loop !197

hls_free_segments.exit32:                         ; preds = %.lr.ph.i29, %hls_free_segments.exit
  call void @llvm.lifetime.end.p0(i64 8, ptr nonnull %2) #17
  %34 = getelementptr inbounds nuw i8, ptr %12, i64 280
  call void @av_freep(ptr noundef nonnull %34) #17
  %35 = getelementptr inbounds nuw i8, ptr %12, i64 12672
  call void @av_freep(ptr noundef nonnull %35) #17
  %indvars.iv.next = add nuw nsw i64 %indvars.iv, 1
  %36 = load i32, ptr %6, align 8, !tbaa !24
  %37 = zext i32 %36 to i64
  %38 = icmp samesign ult i64 %indvars.iv.next, %37
  br i1 %38, label %10, label %._crit_edge, !llvm.loop !199

._crit_edge:                                      ; preds = %hls_free_segments.exit32, %1
  %39 = getelementptr inbounds nuw i8, ptr %5, i64 8568
  %40 = call i32 @ff_format_io_close(ptr noundef %0, ptr noundef nonnull %39) #17
  %41 = getelementptr inbounds nuw i8, ptr %5, i64 8576
  %42 = call i32 @ff_format_io_close(ptr noundef %0, ptr noundef nonnull %41) #17
  %43 = getelementptr inbounds nuw i8, ptr %5, i64 8584
  %44 = call i32 @ff_format_io_close(ptr noundef %0, ptr noundef nonnull %43) #17
  %45 = getelementptr inbounds nuw i8, ptr %5, i64 176
  call void @av_freep(ptr noundef nonnull %45) #17
  %46 = getelementptr inbounds nuw i8, ptr %5, i64 8488
  call void @av_freep(ptr noundef nonnull %46) #17
  %47 = getelementptr inbounds nuw i8, ptr %5, i64 8504
  call void @av_freep(ptr noundef nonnull %47) #17
  %48 = getelementptr inbounds nuw i8, ptr %5, i64 8520
  call void @av_freep(ptr noundef nonnull %48) #17
  ret void
}